; Function Attrs: mustprogress nounwind uwtable
define void @proj_operation_factory_context_destroy(ptr noundef %0) local_unnamed_addr #0 personality ptr @__gxx_personality_v0 {
  %2 = icmp eq ptr %0, null
  br i1 %2, label %8, label %3

3:                                                ; preds = %1
  %4 = load ptr, ptr %0, align 8
  %.not.i.i.i = icmp eq ptr %4, null
  br i1 %.not.i.i.i, label %_ZN28PJ_OPERATION_FACTORY_CONTEXTD2Ev.exit, label %_ZNKSt14default_deleteIN5osgeo4proj9operation26CoordinateOperationContextEEclEPS3_.exit.i.i.i

_ZNKSt14default_deleteIN5osgeo4proj9operation26CoordinateOperationContextEEclEPS3_.exit.i.i.i: ; preds = %3
  %5 = load ptr, ptr %4, align 8
  %6 = getelementptr inbounds i8, ptr %5, i64 8
  %7 = load ptr, ptr %6, align 8
  tail call void %7(ptr noundef nonnull align 8 dereferenceable(16) %4) #27
  br label %_ZN28PJ_OPERATION_FACTORY_CONTEXTD2Ev.exit

_ZN28PJ_OPERATION_FACTORY_CONTEXTD2Ev.exit:       ; preds = %3, %_ZNKSt14default_deleteIN5osgeo4proj9operation26CoordinateOperationContextEEclEPS3_.exit.i.i.i
  tail call void @_ZdlPv(ptr noundef nonnull %0) #28
  br label %8

8:                                                ; preds = %_ZN28PJ_OPERATION_FACTORY_CONTEXTD2Ev.exit, %1
  ret void
}